target datalayout = "e-m:e-p270:32:32-p271:32:32-p272:64:64-i64:64-i128:128-f80:128-n8:16:32:64-S128"
target triple = "x86_64-pc-linux-gnu"

%struct.If_Man_t_ = type { ptr, ptr, ptr, ptr, ptr, ptr, ptr, ptr, [5 x i32], i32, float, float, float, float, i32, float, i32, i32, [4 x ptr], ptr, i32, i32, i32, ptr, [3 x [32 x i32]], i32, i32, i32, ptr, ptr, ptr, ptr, ptr, ptr, ptr, i32, i32, i32, [16 x i32], i32, i32, i32, i32, ptr, ptr, ptr, ptr, ptr, i32, i32, [32 x i32], [32 x i32], i32, i32, i32, i32, ptr, [16 x ptr], [16 x ptr], [16 x ptr], [16 x ptr], [16 x ptr], [16 x ptr], [16 x ptr], ptr, ptr, ptr, ptr, [32 x i8], i32, i32, i32, [6 x i64], [2 x i32], [2 x i32], ptr, [15 x i32], ptr, ptr, ptr, [16 x i32], ptr, ptr, ptr, ptr, [2 x i32], [2 x i32], [2 x ptr], ptr }
%struct.If_Par_t_ = type { i32, i32, i32, i32, i32, i32, float, float, i32, i32, i32, i32, i32, i32, i32, i32, i32, i32, i32, i32, i32, i32, i32, i32, i32, i32, i32, i32, i32, i32, i32, i32, i32, i32, i32, i32, i32, i32, i32, i32, i32, i32, i32, i32, i32, i32, i32, i32, i32, i32, ptr, i32, float, i32, i32, i32, i32, i32, i32, i32, i32, i32, i32, i32, i32, i32, i32, float, float, float, ptr, ptr, ptr, ptr, ptr, ptr, ptr, ptr, ptr }
%struct.If_Obj_t_ = type { i32, i32, i32, i32, i32, i32, ptr, ptr, ptr, float, float, float, %union.anon, ptr, %struct.If_Cut_t_ }
%union.anon = type { ptr }
%struct.If_Cut_t_ = type <{ float, float, float, float, i32, i32, i32, i64, [0 x i32] }>
%struct.Vec_Ptr_t_ = type { i32, i32, ptr }

; Function Attrs: inlinehint nounwind uwtable
define internal ptr @If_ObjCutBest(ptr noundef %0) #2 {
  %2 = alloca ptr, align 8
  store ptr %0, ptr %2, align 8, !tbaa !31
  %3 = load ptr, ptr %2, align 8, !tbaa !31
  %4 = getelementptr inbounds nuw %struct.If_Obj_t_, ptr %3, i32 0, i32 14
  ret ptr %4
}

; Function Attrs: inlinehint nounwind uwtable
define internal i32 @If_ObjIsAnd(ptr noundef %0) #2 {
  %2 = alloca ptr, align 8
  store ptr %0, ptr %2, align 8, !tbaa !31
  %3 = load ptr, ptr %2, align 8, !tbaa !31
  %4 = load i32, ptr %3, align 8
  %5 = and i32 %4, 15
  %6 = icmp eq i32 %5, 4
  %7 = zext i1 %6 to i32
  ret i32 %7
}

; Function Attrs: inlinehint nounwind uwtable
define internal ptr @If_ObjFanin0(ptr noundef %0) #2 {
  %2 = alloca ptr, align 8
  store ptr %0, ptr %2, align 8, !tbaa !31
  %3 = load ptr, ptr %2, align 8, !tbaa !31
  %4 = getelementptr inbounds nuw %struct.If_Obj_t_, ptr %3, i32 0, i32 6
  %5 = load ptr, ptr %4, align 8, !tbaa !32
  ret ptr %5
}

; Function Attrs: inlinehint nounwind uwtable
define internal i32 @Vec_PtrSize(ptr noundef %0) #2 {
  %2 = alloca ptr, align 8
  store ptr %0, ptr %2, align 8, !tbaa !40
  %3 = load ptr, ptr %2, align 8, !tbaa !40
  %4 = getelementptr inbounds nuw %struct.Vec_Ptr_t_, ptr %3, i32 0, i32 1
  %5 = load i32, ptr %4, align 4, !tbaa !42
  ret i32 %5
}

; Function Attrs: inlinehint nounwind uwtable
define internal i32 @If_ManCoNum(ptr noundef %0) #2 {
  %2 = alloca ptr, align 8
  store ptr %0, ptr %2, align 8, !tbaa !3
  %3 = load ptr, ptr %2, align 8, !tbaa !3
  %4 = getelementptr inbounds nuw %struct.If_Man_t_, ptr %3, i32 0, i32 8
  %5 = getelementptr inbounds [5 x i32], ptr %4, i64 0, i64 3
  %6 = load i32, ptr %5, align 4, !tbaa !8
  ret i32 %6
}

; Function Attrs: inlinehint nounwind uwtable
define internal float @If_ObjLValue(ptr noundef %0) #2 {
  %2 = alloca ptr, align 8
  store ptr %0, ptr %2, align 8, !tbaa !31
  %3 = load ptr, ptr %2, align 8, !tbaa !31
  %4 = getelementptr inbounds nuw %struct.If_Obj_t_, ptr %3, i32 0, i32 11
  %5 = load float, ptr %4, align 8, !tbaa !66
  ret float %5
}

; Function Attrs: inlinehint nounwind uwtable
define internal ptr @Vec_PtrEntry(ptr noundef %0, i32 noundef %1) #2 {
  %3 = alloca ptr, align 8
  %4 = alloca i32, align 4
  store ptr %0, ptr %3, align 8, !tbaa !40
  store i32 %1, ptr %4, align 4, !tbaa !8
  %5 = load ptr, ptr %3, align 8, !tbaa !40
  %6 = getelementptr inbounds nuw %struct.Vec_Ptr_t_, ptr %5, i32 0, i32 2
  %7 = load ptr, ptr %6, align 8, !tbaa !45
  %8 = load i32, ptr %4, align 4, !tbaa !8
  %9 = sext i32 %8 to i64
  %10 = getelementptr inbounds ptr, ptr %7, i64 %9
  %11 = load ptr, ptr %10, align 8, !tbaa !41
  ret ptr %11
}

; Function Attrs: inlinehint nounwind uwtable
define internal i32 @If_ManCiNum(ptr noundef %0) #2 {
  %2 = alloca ptr, align 8
  store ptr %0, ptr %2, align 8, !tbaa !3
  %3 = load ptr, ptr %2, align 8, !tbaa !3
  %4 = getelementptr inbounds nuw %struct.If_Man_t_, ptr %3, i32 0, i32 8
  %5 = getelementptr inbounds [5 x i32], ptr %4, i64 0, i64 2
  %6 = load i32, ptr %5, align 8, !tbaa !8
  ret i32 %6
}

; Function Attrs: nounwind uwtable
define void @If_ManPerformMappingSeqPost(ptr noundef %0) #0 {
  %2 = alloca ptr, align 8
  %3 = alloca ptr, align 8
  %4 = alloca ptr, align 8
  %5 = alloca ptr, align 8
  %6 = alloca i32, align 4
  store ptr %0, ptr %2, align 8, !tbaa !3
  call void @llvm.lifetime.start.p0(i64 8, ptr %3) #9
  call void @llvm.lifetime.start.p0(i64 8, ptr %4) #9
  call void @llvm.lifetime.start.p0(i64 8, ptr %5) #9
  call void @llvm.lifetime.start.p0(i64 4, ptr %6) #9
  %7 = load ptr, ptr %2, align 8, !tbaa !3
  %8 = call i32 @If_ManCiNum(ptr noundef %7)
  %9 = load ptr, ptr %2, align 8, !tbaa !3
  %10 = getelementptr inbounds nuw %struct.If_Man_t_, ptr %9, i32 0, i32 1
  %11 = load ptr, ptr %10, align 8, !tbaa !10
  %12 = getelementptr inbounds nuw %struct.If_Par_t_, ptr %11, i32 0, i32 61
  %13 = load i32, ptr %12, align 8, !tbaa !27
  %14 = sub nsw i32 %8, %13
  %15 = load ptr, ptr %2, align 8, !tbaa !3
  %16 = getelementptr inbounds nuw %struct.If_Man_t_, ptr %15, i32 0, i32 1
  %17 = load ptr, ptr %16, align 8, !tbaa !10
  %18 = getelementptr inbounds nuw %struct.If_Par_t_, ptr %17, i32 0, i32 63
  %19 = load i32, ptr %18, align 8, !tbaa !46
  %20 = sub nsw i32 %14, %19
  store i32 %20, ptr %6, align 4, !tbaa !8
  br label %21

21:                                               ; preds = %51, %1
  %22 = load i32, ptr %6, align 4, !tbaa !8
  %23 = load ptr, ptr %2, align 8, !tbaa !3
  %24 = call i32 @If_ManCiNum(ptr noundef %23)
  %25 = load ptr, ptr %2, align 8, !tbaa !3
  %26 = getelementptr inbounds nuw %struct.If_Man_t_, ptr %25, i32 0, i32 1
  %27 = load ptr, ptr %26, align 8, !tbaa !10
  %28 = getelementptr inbounds nuw %struct.If_Par_t_, ptr %27, i32 0, i32 63
  %29 = load i32, ptr %28, align 8, !tbaa !46
  %30 = sub nsw i32 %24, %29
  %31 = icmp slt i32 %22, %30
  br i1 %31, label %32, label %38

32:                                               ; preds = %21
  %33 = load ptr, ptr %2, align 8, !tbaa !3
  %34 = getelementptr inbounds nuw %struct.If_Man_t_, ptr %33, i32 0, i32 3
  %35 = load ptr, ptr %34, align 8, !tbaa !39
  %36 = load i32, ptr %6, align 4, !tbaa !8
  %37 = call ptr @Vec_PtrEntry(ptr noundef %35, i32 noundef %36)
  store ptr %37, ptr %4, align 8, !tbaa !31
  br label %38

38:                                               ; preds = %32, %21
  %39 = phi i1 [ false, %21 ], [ true, %32 ]
  br i1 %39, label %40, label %54

40:                                               ; preds = %38
  %41 = load ptr, ptr %4, align 8, !tbaa !31
  %42 = call float @If_ObjLValue(ptr noundef %41)
  %43 = load ptr, ptr %2, align 8, !tbaa !3
  %44 = getelementptr inbounds nuw %struct.If_Man_t_, ptr %43, i32 0, i32 1
  %45 = load ptr, ptr %44, align 8, !tbaa !10
  %46 = getelementptr inbounds nuw %struct.If_Par_t_, ptr %45, i32 0, i32 71
  %47 = load ptr, ptr %46, align 8, !tbaa !77
  %48 = load i32, ptr %6, align 4, !tbaa !8
  %49 = sext i32 %48 to i64
  %50 = getelementptr inbounds float, ptr %47, i64 %49
  store float %42, ptr %50, align 4, !tbaa !65
  br label %51

51:                                               ; preds = %40
  %52 = load i32, ptr %6, align 4, !tbaa !8
  %53 = add nsw i32 %52, 1
  store i32 %53, ptr %6, align 4, !tbaa !8
  br label %21, !llvm.loop !78

54:                                               ; preds = %38
  %55 = load ptr, ptr %2, align 8, !tbaa !3
  %56 = call i32 @If_ManCoNum(ptr noundef %55)
  %57 = sext i32 %56 to i64
  %58 = mul i64 4, %57
  %59 = call noalias ptr @malloc(i64 noundef %58) #10
  %60 = load ptr, ptr %2, align 8, !tbaa !3
  %61 = getelementptr inbounds nuw %struct.If_Man_t_, ptr %60, i32 0, i32 1
  %62 = load ptr, ptr %61, align 8, !tbaa !10
  %63 = getelementptr inbounds nuw %struct.If_Par_t_, ptr %62, i32 0, i32 72
  store ptr %59, ptr %63, align 8, !tbaa !79
  %64 = load ptr, ptr %2, align 8, !tbaa !3
  %65 = getelementptr inbounds nuw %struct.If_Man_t_, ptr %64, i32 0, i32 1
  %66 = load ptr, ptr %65, align 8, !tbaa !10
  %67 = getelementptr inbounds nuw %struct.If_Par_t_, ptr %66, i32 0, i32 64
  %68 = load i32, ptr %67, align 4, !tbaa !80
  store i32 %68, ptr %6, align 4, !tbaa !8
  br label %69

69:                                               ; preds = %100, %54
  %70 = load i32, ptr %6, align 4, !tbaa !8
  %71 = load ptr, ptr %2, align 8, !tbaa !3
  %72 = call i32 @If_ManCoNum(ptr noundef %71)
  %73 = load ptr, ptr %2, align 8, !tbaa !3
  %74 = getelementptr inbounds nuw %struct.If_Man_t_, ptr %73, i32 0, i32 1
  %75 = load ptr, ptr %74, align 8, !tbaa !10
  %76 = getelementptr inbounds nuw %struct.If_Par_t_, ptr %75, i32 0, i32 62
  %77 = load i32, ptr %76, align 4, !tbaa !38
  %78 = sub nsw i32 %72, %77
  %79 = icmp slt i32 %70, %78
  br i1 %79, label %80, label %86

80:                                               ; preds = %69
  %81 = load ptr, ptr %2, align 8, !tbaa !3
  %82 = getelementptr inbounds nuw %struct.If_Man_t_, ptr %81, i32 0, i32 4
  %83 = load ptr, ptr %82, align 8, !tbaa !37
  %84 = load i32, ptr %6, align 4, !tbaa !8
  %85 = call ptr @Vec_PtrEntry(ptr noundef %83, i32 noundef %84)
  store ptr %85, ptr %5, align 8, !tbaa !31
  br label %86

86:                                               ; preds = %80, %69
  %87 = phi i1 [ false, %69 ], [ true, %80 ]
  br i1 %87, label %88, label %103

88:                                               ; preds = %86
  %89 = load ptr, ptr %2, align 8, !tbaa !3
  %90 = getelementptr inbounds nuw %struct.If_Man_t_, ptr %89, i32 0, i32 12
  %91 = load float, ptr %90, align 8, !tbaa !81
  %92 = load ptr, ptr %2, align 8, !tbaa !3
  %93 = getelementptr inbounds nuw %struct.If_Man_t_, ptr %92, i32 0, i32 1
  %94 = load ptr, ptr %93, align 8, !tbaa !10
  %95 = getelementptr inbounds nuw %struct.If_Par_t_, ptr %94, i32 0, i32 72
  %96 = load ptr, ptr %95, align 8, !tbaa !79
  %97 = load i32, ptr %6, align 4, !tbaa !8
  %98 = sext i32 %97 to i64
  %99 = getelementptr inbounds float, ptr %96, i64 %98
  store float %91, ptr %99, align 4, !tbaa !65
  br label %100

100:                                              ; preds = %88
  %101 = load i32, ptr %6, align 4, !tbaa !8
  %102 = add nsw i32 %101, 1
  store i32 %102, ptr %6, align 4, !tbaa !8
  br label %69, !llvm.loop !82

103:                                              ; preds = %86
  %104 = load ptr, ptr %2, align 8, !tbaa !3
  %105 = call i32 @If_ManCoNum(ptr noundef %104)
  %106 = load ptr, ptr %2, align 8, !tbaa !3
  %107 = getelementptr inbounds nuw %struct.If_Man_t_, ptr %106, i32 0, i32 1
  %108 = load ptr, ptr %107, align 8, !tbaa !10
  %109 = getelementptr inbounds nuw %struct.If_Par_t_, ptr %108, i32 0, i32 62
  %110 = load i32, ptr %109, align 4, !tbaa !38
  %111 = sub nsw i32 %105, %110
  store i32 %111, ptr %6, align 4, !tbaa !8
  br label %112

112:                                              ; preds = %139, %103
  %113 = load i32, ptr %6, align 4, !tbaa !8
  %114 = load ptr, ptr %2, align 8, !tbaa !3
  %115 = getelementptr inbounds nuw %struct.If_Man_t_, ptr %114, i32 0, i32 4
  %116 = load ptr, ptr %115, align 8, !tbaa !37
  %117 = call i32 @Vec_PtrSize(ptr noundef %116)
  %118 = icmp slt i32 %113, %117
  br i1 %118, label %119, label %125

119:                                              ; preds = %112
  %120 = load ptr, ptr %2, align 8, !tbaa !3
  %121 = getelementptr inbounds nuw %struct.If_Man_t_, ptr %120, i32 0, i32 4
  %122 = load ptr, ptr %121, align 8, !tbaa !37
  %123 = load i32, ptr %6, align 4, !tbaa !8
  %124 = call ptr @Vec_PtrEntry(ptr noundef %122, i32 noundef %123)
  store ptr %124, ptr %3, align 8, !tbaa !31
  br label %125

125:                                              ; preds = %119, %112
  %126 = phi i1 [ false, %112 ], [ true, %119 ]
  br i1 %126, label %127, label %142

127:                                              ; preds = %125
  %128 = load ptr, ptr %3, align 8, !tbaa !31
  %129 = call ptr @If_ObjFanin0(ptr noundef %128)
  %130 = call float @If_ObjLValue(ptr noundef %129)
  %131 = load ptr, ptr %2, align 8, !tbaa !3
  %132 = getelementptr inbounds nuw %struct.If_Man_t_, ptr %131, i32 0, i32 1
  %133 = load ptr, ptr %132, align 8, !tbaa !10
  %134 = getelementptr inbounds nuw %struct.If_Par_t_, ptr %133, i32 0, i32 72
  %135 = load ptr, ptr %134, align 8, !tbaa !79
  %136 = load i32, ptr %6, align 4, !tbaa !8
  %137 = sext i32 %136 to i64
  %138 = getelementptr inbounds float, ptr %135, i64 %137
  store float %130, ptr %138, align 4, !tbaa !65
  br label %139

139:                                              ; preds = %127
  %140 = load i32, ptr %6, align 4, !tbaa !8
  %141 = add nsw i32 %140, 1
  store i32 %141, ptr %6, align 4, !tbaa !8
  br label %112, !llvm.loop !83

142:                                              ; preds = %125
  store i32 0, ptr %6, align 4, !tbaa !8
  br label %143

143:                                              ; preds = %170, %142
  %144 = load i32, ptr %6, align 4, !tbaa !8
  %145 = load ptr, ptr %2, align 8, !tbaa !3
  %146 = getelementptr inbounds nuw %struct.If_Man_t_, ptr %145, i32 0, i32 5
  %147 = load ptr, ptr %146, align 8, !tbaa !55
  %148 = call i32 @Vec_PtrSize(ptr noundef %147)
  %149 = icmp slt i32 %144, %148
  br i1 %149, label %150, label %156

150:                                              ; preds = %143
  %151 = load ptr, ptr %2, align 8, !tbaa !3
  %152 = getelementptr inbounds nuw %struct.If_Man_t_, ptr %151, i32 0, i32 5
  %153 = load ptr, ptr %152, align 8, !tbaa !55
  %154 = load i32, ptr %6, align 4, !tbaa !8
  %155 = call ptr @Vec_PtrEntry(ptr noundef %153, i32 noundef %154)
  store ptr %155, ptr %5, align 8, !tbaa !31
  br label %156

156:                                              ; preds = %150, %143
  %157 = phi i1 [ false, %143 ], [ true, %150 ]
  br i1 %157, label %158, label %173

158:                                              ; preds = %156
  %159 = load ptr, ptr %5, align 8, !tbaa !31
  %160 = call i32 @If_ObjIsAnd(ptr noundef %159)
  %161 = icmp ne i32 %160, 0
  br i1 %161, label %162, label %169

162:                                              ; preds = %158
  %163 = load ptr, ptr %5, align 8, !tbaa !31
  %164 = call ptr @If_ObjCutBest(ptr noundef %163)
  %165 = getelementptr inbounds nuw %struct.If_Cut_t_, ptr %164, i32 0, i32 7
  %166 = load i64, ptr %165, align 4
  %167 = and i64 %166, -4278190081
  %168 = or i64 %167, 0
  store i64 %168, ptr %165, align 4
  br label %169

169:                                              ; preds = %162, %158
  br label %170

170:                                              ; preds = %169
  %171 = load i32, ptr %6, align 4, !tbaa !8
  %172 = add nsw i32 %171, 1
  store i32 %172, ptr %6, align 4, !tbaa !8
  br label %143, !llvm.loop !84

173:                                              ; preds = %156
  %174 = load ptr, ptr %2, align 8, !tbaa !3
  %175 = call i32 @If_ManPerformMappingComb(ptr noundef %174)
  call void @llvm.lifetime.end.p0(i64 4, ptr %6) #9
  call void @llvm.lifetime.end.p0(i64 8, ptr %5) #9
  call void @llvm.lifetime.end.p0(i64 8, ptr %4) #9
  call void @llvm.lifetime.end.p0(i64 8, ptr %3) #9
  ret void
}