; Function Attrs: nounwind uwtable
define void @If_ManPerformMappingSeqPost(ptr noundef %0) local_unnamed_addr #2 {
  %2 = getelementptr i8, ptr %0, i64 72
  %.val54 = load i32, ptr %2, align 8, !tbaa !29
  %3 = getelementptr inbounds nuw i8, ptr %0, i64 8
  %4 = load ptr, ptr %3, align 8, !tbaa !3
  %5 = getelementptr inbounds nuw i8, ptr %4, i64 248
  %6 = load i32, ptr %5, align 8, !tbaa !24
  %7 = getelementptr inbounds nuw i8, ptr %4, i64 256
  %8 = load i32, ptr %7, align 8, !tbaa !42
  %9 = add i32 %6, %8
  %10 = sub i32 %.val54, %9
  %11 = sub nsw i32 %.val54, %8
  %12 = icmp slt i32 %10, %11
  br i1 %12, label %.lr.ph, label %.critedge

.lr.ph:                                           ; preds = %1
  %13 = getelementptr inbounds nuw i8, ptr %0, i64 24
  %14 = load ptr, ptr %13, align 8, !tbaa !34
  %15 = getelementptr i8, ptr %14, i64 8
  %.val52 = load ptr, ptr %15, align 8, !tbaa !31
  %16 = getelementptr inbounds nuw i8, ptr %4, i64 296
  %17 = load ptr, ptr %16, align 8, !tbaa !72
  %18 = sext i32 %10 to i64
  %wide.trip.count = sext i32 %11 to i64
  br label %19

19:                                               ; preds = %.lr.ph, %19
  %indvars.iv = phi i64 [ %18, %.lr.ph ], [ %indvars.iv.next, %19 ]
  %20 = getelementptr inbounds ptr, ptr %.val52, i64 %indvars.iv
  %21 = load ptr, ptr %20, align 8, !tbaa !33
  %22 = getelementptr i8, ptr %21, i64 56
  %.val59 = load float, ptr %22, align 8, !tbaa !47
  %23 = getelementptr inbounds float, ptr %17, i64 %indvars.iv
  store float %.val59, ptr %23, align 4, !tbaa !73
  %indvars.iv.next = add nsw i64 %indvars.iv, 1
  %exitcond.not = icmp eq i64 %indvars.iv.next, %wide.trip.count
  br i1 %exitcond.not, label %.critedge, label %19, !llvm.loop !74

.critedge:                                        ; preds = %19, %1
  %24 = getelementptr i8, ptr %0, i64 76
  %.val = load i32, ptr %24, align 4, !tbaa !29
  %25 = sext i32 %.val to i64
  %26 = shl nsw i64 %25, 2
  %27 = tail call noalias ptr @malloc(i64 noundef %26) #13
  %28 = getelementptr inbounds nuw i8, ptr %4, i64 304
  store ptr %27, ptr %28, align 8, !tbaa !75
  %29 = getelementptr inbounds nuw i8, ptr %4, i64 260
  %30 = load i32, ptr %29, align 4, !tbaa !76
  %31 = getelementptr inbounds nuw i8, ptr %4, i64 252
  %32 = load i32, ptr %31, align 4, !tbaa !30
  %33 = sub nsw i32 %.val, %32
  %34 = icmp slt i32 %30, %33
  br i1 %34, label %.lr.ph65, label %.critedge2.preheader

.lr.ph65:                                         ; preds = %.critedge
  %35 = getelementptr inbounds nuw i8, ptr %0, i64 96
  %36 = load float, ptr %35, align 8, !tbaa !77
  %37 = sext i32 %30 to i64
  %38 = sext i32 %33 to i64
  br label %45

.critedge2.preheader:                             ; preds = %45, %.critedge
  %39 = getelementptr inbounds nuw i8, ptr %0, i64 32
  %40 = load ptr, ptr %39, align 8, !tbaa !28
  %41 = getelementptr i8, ptr %40, i64 4
  %.val57 = load i32, ptr %41, align 4, !tbaa !40
  %42 = icmp slt i32 %33, %.val57
  br i1 %42, label %.lr.ph67, label %.critedge4.preheader

.lr.ph67:                                         ; preds = %.critedge2.preheader
  %43 = getelementptr i8, ptr %40, i64 8
  %.val50 = load ptr, ptr %43, align 8, !tbaa !31
  %44 = sext i32 %33 to i64
  br label %.critedge2

45:                                               ; preds = %.lr.ph65, %45
  %indvars.iv72 = phi i64 [ %37, %.lr.ph65 ], [ %indvars.iv.next73, %45 ]
  %46 = getelementptr inbounds float, ptr %27, i64 %indvars.iv72
  store float %36, ptr %46, align 4, !tbaa !73
  %indvars.iv.next73 = add nsw i64 %indvars.iv72, 1
  %47 = icmp slt i64 %indvars.iv.next73, %38
  br i1 %47, label %45, label %.critedge2.preheader, !llvm.loop !78

.critedge4.preheader:                             ; preds = %.critedge2, %.critedge2.preheader
  %48 = getelementptr inbounds nuw i8, ptr %0, i64 40
  %49 = load ptr, ptr %48, align 8, !tbaa !51
  %50 = getelementptr i8, ptr %49, i64 4
  %.val5668 = load i32, ptr %50, align 4, !tbaa !40
  %51 = icmp sgt i32 %.val5668, 0
  br i1 %51, label %.lr.ph70, label %.critedge6

.critedge2:                                       ; preds = %.lr.ph67, %.critedge2
  %indvars.iv75 = phi i64 [ %44, %.lr.ph67 ], [ %indvars.iv.next76, %.critedge2 ]
  %52 = getelementptr inbounds ptr, ptr %.val50, i64 %indvars.iv75
  %53 = load ptr, ptr %52, align 8, !tbaa !33
  %54 = getelementptr i8, ptr %53, i64 24
  %.val55 = load ptr, ptr %54, align 8, !tbaa !35
  %55 = getelementptr i8, ptr %.val55, i64 56
  %.val58 = load float, ptr %55, align 8, !tbaa !47
  %56 = getelementptr inbounds float, ptr %27, i64 %indvars.iv75
  store float %.val58, ptr %56, align 4, !tbaa !73
  %indvars.iv.next76 = add nsw i64 %indvars.iv75, 1
  %lftr.wideiv = trunc i64 %indvars.iv.next76 to i32
  %exitcond78.not = icmp eq i32 %.val57, %lftr.wideiv
  br i1 %exitcond78.not, label %.critedge4.preheader, label %.critedge2, !llvm.loop !79

.lr.ph70:                                         ; preds = %.critedge4.preheader, %.critedge4
  %57 = phi ptr [ %66, %.critedge4 ], [ %49, %.critedge4.preheader ]
  %indvars.iv79 = phi i64 [ %indvars.iv.next80, %.critedge4 ], [ 0, %.critedge4.preheader ]
  %58 = getelementptr i8, ptr %57, i64 8
  %.val49 = load ptr, ptr %58, align 8, !tbaa !31
  %59 = getelementptr inbounds nuw ptr, ptr %.val49, i64 %indvars.iv79
  %60 = load ptr, ptr %59, align 8, !tbaa !33
  %.val60 = load i32, ptr %60, align 8
  %61 = and i32 %.val60, 15
  %.not = icmp eq i32 %61, 4
  br i1 %.not, label %62, label %.critedge4

62:                                               ; preds = %.lr.ph70
  %63 = getelementptr inbounds nuw i8, ptr %60, i64 108
  %64 = load i64, ptr %63, align 4
  %65 = and i64 %64, -4278190081
  store i64 %65, ptr %63, align 4
  %.pre = load ptr, ptr %48, align 8, !tbaa !51
  br label %.critedge4

.critedge4:                                       ; preds = %.lr.ph70, %62
  %66 = phi ptr [ %57, %.lr.ph70 ], [ %.pre, %62 ]
  %indvars.iv.next80 = add nuw nsw i64 %indvars.iv79, 1
  %67 = getelementptr i8, ptr %66, i64 4
  %.val56 = load i32, ptr %67, align 4, !tbaa !40
  %68 = sext i32 %.val56 to i64
  %69 = icmp slt i64 %indvars.iv.next80, %68
  br i1 %69, label %.lr.ph70, label %.critedge6, !llvm.loop !80

.critedge6:                                       ; preds = %.critedge4, %.critedge4.preheader
  %70 = tail call i32 @If_ManPerformMappingComb(ptr noundef nonnull %0) #14
  ret void
}